(dp1
S'output'
p2
S'<type \'exceptions.KeyError\'> "Column {\'content\': <function <lambda> at 0xb8fbaac>, \'label\': <gluon.html.A object at 0xb8e8bac>} not found (SQLTABLE)"'
p3
sS'layer'
p4
S'/home/ebratt/PycharmProjects/psim2web2py/web2py/applications/psim2web2py/controllers/default.py'
p5
sS'code'
p6
S'# -*- coding: utf-8 -*-\nfrom plugin_tablescope import TableScope\nfrom plugin_solidtable import SOLIDTABLE, OrderbySelector\n\n\ndef index():\n    """\n    example action using the internationalization operator T and flash\n    rendered by views/default/index.html or views/generic.html\n\n    if you need a simple wiki simply replace the two lines below with:\n    return auth.wiki()\n    """\n    logged_in = auth.user or False\n\n    # build the SOLIDTABLE\n    request_headers = request.vars.headers or \'default\'\n    request_columns = request.vars.columns or \'default\'\n    orderby_selector = OrderbySelector([~db.Simulation.id])\n    dataset = db(db.Simulation.Owner == auth.user)\n    scope = TableScope(dataset, db.Simulation.Algorithm, renderstyle=True)\n    rows = scope.scoped_dataset.select(\n        db.Simulation.Date,\n        db.Simulation.Algorithm,\n        db.Simulation.Input_Data,\n        db.Simulation.Result,\n        orderby=orderby_selector.orderby())\n    if request_headers == \'default\':\n        # The "headers" is a dictionary of dictionaries for updating default values.\n        # Custom fields such as "tax" can be passed to the dictionary keys.\n        headers = {\'Simulation.Date\': {\'selected\': True},\n                   \'Simulation.Algorithm\': {\'selected\': False},\n                   \'Simulation.Input_Data\': {\'selected\': False},\n                   \'Simulation.Result\': {\'selected\': False}\n                   }\n    else:\n        # The "headers" can be \'labels\' or \'fieldname:capitalize\'\n        headers = request_headers\n    extracolumns = [{\'label\': A(\'Log\', _href=\'#\'),\n                     \'content\': lambda row, rc: A(\'Log\', _href=\'show/%s\' % row.Log.id)},\n                    {\'label\': A(\'Plot\', _href=\'#\'),\n                     \'content\': lambda row, rc: A(\'Plot\', _href=\'show/%s\' % row.Plot.id)},\n                    ]\n    columns = [db.Simulation.Date,\n               db.Simulation.Algorithm,\n               db.Simulation.Input_Data,\n               db.Simulation.Result,\n               extracolumns[0]]\n    table = SOLIDTABLE(rows,\n                       columns=columns,\n                       headers=headers,\n                       orderby=orderby_selector,\n                       renderstyle=True)\n    return dict(logged_in=logged_in, sample_1=dict(table=table, scope=scope))\n\n\ndef user():\n    """\n    exposes:\n    http://..../[app]/default/user/login\n    http://..../[app]/default/user/logout\n    http://..../[app]/default/user/register\n    http://..../[app]/default/user/profile\n    http://..../[app]/default/user/retrieve_password\n    http://..../[app]/default/user/change_password\n    http://..../[app]/default/user/manage_users (requires membership in\n    use @auth.requires_login()\n        @auth.requires_membership(\'group name\')\n        @auth.requires_permission(\'read\',\'table name\',record_id)\n    to decorate functions that need access control\n    """\n    return dict(form=auth())\n\n\n@cache.action()\ndef download():\n    """\n    allows downloading of uploaded files\n    http://..../[app]/default/download/[filename]\n    """\n    return response.download(request, db)\n\n\ndef call():\n    """\n    exposes services. for example:\n    http://..../[app]/default/call/jsonrpc\n    decorate with @services.jsonrpc the functions to expose\n    supports xml, json, xmlrpc, jsonrpc, amfrpc, rss, csv\n    """\n    return service()\n\n\n\nresponse._vars=response._caller(index)\n'
p7
sS'snapshot'
p8
(dp9
sS'traceback'
p10
S'Traceback (most recent call last):\n  File "/home/ebratt/PycharmProjects/psim2web2py/web2py/gluon/restricted.py", line 224, in restricted\n    exec ccode in environment\n  File "/home/ebratt/PycharmProjects/psim2web2py/web2py/applications/psim2web2py/controllers/default.py", line 95, in <module>\n  File "/home/ebratt/PycharmProjects/psim2web2py/web2py/gluon/globals.py", line 393, in <lambda>\n    self._caller = lambda f: f()\n  File "/home/ebratt/PycharmProjects/psim2web2py/web2py/applications/psim2web2py/controllers/default.py", line 53, in index\n    renderstyle=True)\n  File "applications/psim2web2py/modules/plugin_solidtable.py", line 73, in __init__\n    self.components.append(self._create_tbody(headers, col_lines))\n  File "applications/psim2web2py/modules/plugin_solidtable.py", line 216, in _create_tbody\n    tr_inner.append(self._create_td(headers[col], col, record, rc))\n  File "applications/psim2web2py/modules/plugin_solidtable.py", line 242, in _create_td\n    raise KeyError("Column %s not found (SQLTABLE)" % _colname)\nKeyError: "Column {\'content\': <function <lambda> at 0xb8fbaac>, \'label\': <gluon.html.A object at 0xb8e8bac>} not found (SQLTABLE)"\n'
p11
s.