(dp1
S'output'
p2
S"<type 'exceptions.NameError'> global name 'OrderbySelector' is not defined"
p3
sS'layer'
p4
S'/home/ebratt/PycharmProjects/psim2web2py/web2py/applications/psim2web2py/controllers/default.py'
p5
sS'code'
p6
S'# -*- coding: utf-8 -*-\nfrom plugin_tablescope import TableScope\nfrom plugin_solidtable import SOLIDTABLE\n\n\ndef index():\n    """\n    example action using the internationalization operator T and flash\n    rendered by views/default/index.html or views/generic.html\n\n    if you need a simple wiki simply replace the two lines below with:\n    return auth.wiki()\n    """\n    logged_in = auth.user or False\n\n    # build the SOLIDTABLE\n    request_headers = request.vars.headers or \'default\'\n    request_columns = request.vars.columns or \'default\'\n    orderby_selector = OrderbySelector([db.Simulation.id])\n    dataset = db(db.Simulation.Owner == auth.user).select(\n        db.Simulation.Date,\n        db.Simulation.Algorithm,\n        db.Simulation.Input_Data,\n        sb.Simulation.Result,\n        orderby=orderby_selector.orderby())\n    scope_1 = TableScope(dataset, db.Simulation.Algorithm, renderstyle=True)\n    rows_1 = scope_1.scoped_dataset.select()\n    table = SOLIDTABLE(rows_1, renderstyle=True)\n    return dict(logged_in=logged_in, sample_1=dict(table=table, scope=scope_1))\n\n\ndef user():\n    """\n    exposes:\n    http://..../[app]/default/user/login\n    http://..../[app]/default/user/logout\n    http://..../[app]/default/user/register\n    http://..../[app]/default/user/profile\n    http://..../[app]/default/user/retrieve_password\n    http://..../[app]/default/user/change_password\n    http://..../[app]/default/user/manage_users (requires membership in\n    use @auth.requires_login()\n        @auth.requires_membership(\'group name\')\n        @auth.requires_permission(\'read\',\'table name\',record_id)\n    to decorate functions that need access control\n    """\n    return dict(form=auth())\n\n\n@cache.action()\ndef download():\n    """\n    allows downloading of uploaded files\n    http://..../[app]/default/download/[filename]\n    """\n    return response.download(request, db)\n\n\ndef call():\n    """\n    exposes services. for example:\n    http://..../[app]/default/call/jsonrpc\n    decorate with @services.jsonrpc the functions to expose\n    supports xml, json, xmlrpc, jsonrpc, amfrpc, rss, csv\n    """\n    return service()\n\n\n\nresponse._vars=response._caller(index)\n'
p7
sS'snapshot'
p8
(dp9
sS'traceback'
p10
S'Traceback (most recent call last):\n  File "/home/ebratt/PycharmProjects/psim2web2py/web2py/gluon/restricted.py", line 224, in restricted\n    exec ccode in environment\n  File "/home/ebratt/PycharmProjects/psim2web2py/web2py/applications/psim2web2py/controllers/default.py", line 70, in <module>\n  File "/home/ebratt/PycharmProjects/psim2web2py/web2py/gluon/globals.py", line 393, in <lambda>\n    self._caller = lambda f: f()\n  File "/home/ebratt/PycharmProjects/psim2web2py/web2py/applications/psim2web2py/controllers/default.py", line 19, in index\n    orderby_selector = OrderbySelector([db.Simulation.id])\nNameError: global name \'OrderbySelector\' is not defined\n'
p11
s.