(dp1
S'output'
p2
S"<type 'exceptions.TypeError'> long() argument must be a string or a number, not 'Table'"
p3
sS'layer'
p4
S'/home/ebratt/PycharmProjects/psim2web2py/web2py/applications/psim2web2py/controllers/default.py'
p5
sS'code'
p6
S'# -*- coding: utf-8 -*-\nfrom plugin_tablescope import TableScope\nfrom plugin_solidtable import SOLIDTABLE, OrderbySelector\n\n\ndef index():\n    """\n    example action using the internationalization operator T and flash\n    rendered by views/default/index.html or views/generic.html\n\n    if you need a simple wiki simply replace the two lines below with:\n    return auth.wiki()\n    """\n    logged_in = auth.user or False\n\n    # build the SOLIDTABLE\n    request_headers = request.vars.headers or \'default\'\n    request_columns = request.vars.columns or \'default\'\n    orderby_selector = OrderbySelector([~db.Simulation.id])\n    dataset = db(db.Simulation.Owner==auth.user and\n                 db.Log.Simulation==db.Simulation and\n                 db.Plot.Simulation==db.Simulation)\n    scope = TableScope(dataset, db.Simulation.Algorithm, renderstyle=True)\n    rows = scope.scoped_dataset.select(\n        db.Simulation.Date,\n        db.Simulation.Algorithm,\n        db.Simulation.Input_Data,\n        db.Simulation.Result,\n        db.Log.Content,\n        db.Plot.Plot,\n        orderby=orderby_selector.orderby())\n    if request_headers == \'default\':\n        # The "headers" is a dictionary of dictionaries for updating default values.\n        # Custom fields such as "tax" can be passed to the dictionary keys.\n        headers = {\'Simulation.Date\': {\'selected\': True},\n                   \'Simulation.Algorithm\': {\'selected\': False},\n                   \'Simulation.Input_Data\': {\'selected\': False},\n                   \'Simulation.Result\': {\'selected\': False},\n                   \'Log.Content\': {\'selected\': False},\n                   \'Plot.Plot\': {\'selected\': False}\n                   }\n    else:\n        # The "headers" can be \'labels\' or \'fieldname:capitalize\'\n        headers = request_headers\n    extracolumns = [{\'label\': A(\'Log\', _href=\'#\'),\n                     \'content\': lambda row, rc: A(\'Log\', _href=\'show/%s\' % row.Log.Content)},\n                    {\'label\': A(\'Plot\', _href=\'#\'),\n                     \'content\': lambda row, rc: A(\'Plot\', _href=\'show/%s\' % row.Plot.Plot)},\n                    ]\n    columns = [db.Simulation.Date,\n               db.Simulation.Algorithm,\n               db.Simulation.Input_Data,\n               db.Simulation.Result,\n               extracolumns[0]]\n    table = SOLIDTABLE(rows,\n                       columns=columns,\n                       headers=headers,\n                       orderby=orderby_selector,\n                       renderstyle=True)\n    return dict(logged_in=logged_in, sample_1=dict(table=table, scope=scope))\n\n\ndef user():\n    """\n    exposes:\n    http://..../[app]/default/user/login\n    http://..../[app]/default/user/logout\n    http://..../[app]/default/user/register\n    http://..../[app]/default/user/profile\n    http://..../[app]/default/user/retrieve_password\n    http://..../[app]/default/user/change_password\n    http://..../[app]/default/user/manage_users (requires membership in\n    use @auth.requires_login()\n        @auth.requires_membership(\'group name\')\n        @auth.requires_permission(\'read\',\'table name\',record_id)\n    to decorate functions that need access control\n    """\n    return dict(form=auth())\n\n\n@cache.action()\ndef download():\n    """\n    allows downloading of uploaded files\n    http://..../[app]/default/download/[filename]\n    """\n    return response.download(request, db)\n\n\ndef call():\n    """\n    exposes services. for example:\n    http://..../[app]/default/call/jsonrpc\n    decorate with @services.jsonrpc the functions to expose\n    supports xml, json, xmlrpc, jsonrpc, amfrpc, rss, csv\n    """\n    return service()\n\n\n\nresponse._vars=response._caller(index)\n'
p7
sS'snapshot'
p8
(dp9
sS'traceback'
p10
S'Traceback (most recent call last):\n  File "/home/ebratt/PycharmProjects/psim2web2py/web2py/gluon/restricted.py", line 224, in restricted\n    exec ccode in environment\n  File "/home/ebratt/PycharmProjects/psim2web2py/web2py/applications/psim2web2py/controllers/default.py", line 101, in <module>\n  File "/home/ebratt/PycharmProjects/psim2web2py/web2py/gluon/globals.py", line 393, in <lambda>\n    self._caller = lambda f: f()\n  File "/home/ebratt/PycharmProjects/psim2web2py/web2py/applications/psim2web2py/controllers/default.py", line 23, in index\n    scope = TableScope(dataset, db.Simulation.Algorithm, renderstyle=True)\n  File "applications/psim2web2py/modules/plugin_tablescope.py", line 47, in __init__\n    self.scope_details[k] = dict(label=v, count=_get_count(_dataset))\n  File "applications/psim2web2py/modules/plugin_tablescope.py", line 34, in _get_count\n    return _dataset.count()\n  File "/home/ebratt/PycharmProjects/psim2web2py/web2py/gluon/dal/objects.py", line 2056, in count\n    return db._adapter.count(self.query,distinct)\n  File "/home/ebratt/PycharmProjects/psim2web2py/web2py/gluon/dal/adapters/base.py", line 1252, in count\n    self.execute(self._count(query, distinct))\n  File "/home/ebratt/PycharmProjects/psim2web2py/web2py/gluon/dal/adapters/base.py", line 1239, in _count\n    sql_w = \' WHERE \' + self.expand(query)\n  File "/home/ebratt/PycharmProjects/psim2web2py/web2py/gluon/dal/adapters/base.py", line 897, in expand\n    out = op(first, second, **optional_args)\n  File "/home/ebratt/PycharmProjects/psim2web2py/web2py/gluon/dal/adapters/base.py", line 736, in AND\n    return \'(%s AND %s)\' % (self.expand(first), self.expand(second))\n  File "/home/ebratt/PycharmProjects/psim2web2py/web2py/gluon/dal/adapters/base.py", line 897, in expand\n    out = op(first, second, **optional_args)\n  File "/home/ebratt/PycharmProjects/psim2web2py/web2py/gluon/dal/adapters/base.py", line 794, in EQ\n    self.expand(second, first.type))\n  File "/home/ebratt/PycharmProjects/psim2web2py/web2py/gluon/dal/adapters/base.py", line 908, in expand\n    return str(self.represent(expression,field_type))\n  File "/home/ebratt/PycharmProjects/psim2web2py/web2py/gluon/dal/adapters/base.py", line 1364, in represent\n    return str(long(obj))\nTypeError: long() argument must be a string or a number, not \'Table\'\n'
p11
s.